target datalayout = "e-m:e-p270:32:32-p271:32:32-p272:64:64-i64:64-i128:128-f80:128-n8:16:32:64-S128"
target triple = "x86_64-pc-linux-gnu"

@.str.88 = private unnamed_addr constant [24 x i8] c"data request %d invalid\00", align 1

; Function Attrs: nounwind uwtable
define dso_local i32 @acct_storage_p_get_data(ptr noundef %0, i32 noundef %1, ptr noundef %2) #0 {
  %4 = alloca ptr, align 8
  %5 = alloca i32, align 4
  %6 = alloca ptr, align 8
  %7 = alloca ptr, align 8
  %8 = alloca i32, align 4
  store ptr %0, ptr %4, align 8
  store i32 %1, ptr %5, align 4
  store ptr %2, ptr %6, align 8
  call void @llvm.lifetime.start.p0(i64 8, ptr %7) #9
  %9 = load ptr, ptr %6, align 8
  store ptr %9, ptr %7, align 8
  call void @llvm.lifetime.start.p0(i64 4, ptr %8) #9
  store i32 0, ptr %8, align 4
  %10 = load i32, ptr %5, align 4
  switch i32 %10, label %18 [
    i32 0, label %11
    i32 1, label %15
  ]

11:                                               ; preds = %3
  %12 = call zeroext i1 @slurmdbd_conn_active()
  %13 = zext i1 %12 to i32
  %14 = load ptr, ptr %7, align 8
  store i32 %13, ptr %14, align 4
  br label %21

15:                                               ; preds = %3
  %16 = call i32 @slurmdbd_agent_queue_count()
  %17 = load ptr, ptr %7, align 8
  store i32 %16, ptr %17, align 4
  br label %21

18:                                               ; preds = %3
  %19 = load i32, ptr %5, align 4
  %20 = call i32 (ptr, ...) @slurm_error(ptr noundef @.str.88, i32 noundef %19)
  store i32 -1, ptr %8, align 4
  br label %21

21:                                               ; preds = %18, %15, %11
  %22 = load i32, ptr %8, align 4
  call void @llvm.lifetime.end.p0(i64 4, ptr %8) #9
  call void @llvm.lifetime.end.p0(i64 8, ptr %7) #9
  ret i32 %22
}