; Function Attrs: nounwind uwtable
define dso_local range(i32 -1, 1) i32 @acct_storage_p_get_data(ptr noundef readnone captures(none) %0, i32 noundef %1, ptr noundef writeonly captures(none) %2) local_unnamed_addr #0 {
  switch i32 %1, label %9 [
    i32 0, label %4
    i32 1, label %7
  ]

4:                                                ; preds = %3
  %5 = tail call zeroext i1 @slurmdbd_conn_active() #11
  %6 = zext i1 %5 to i32
  store i32 %6, ptr %2, align 4
  br label %11

7:                                                ; preds = %3
  %8 = tail call i32 @slurmdbd_agent_queue_count() #11
  store i32 %8, ptr %2, align 4
  br label %11

9:                                                ; preds = %3
  %10 = tail call i32 (ptr, ...) @slurm_error(ptr noundef nonnull @.str.88, i32 noundef %1) #11
  br label %11

11:                                               ; preds = %9, %7, %4
  %.0 = phi i32 [ -1, %9 ], [ 0, %7 ], [ 0, %4 ]
  ret i32 %.0
}